; Function Attrs: nounwind uwtable
define noalias nonnull ptr @l_Std_Time_Duration_fromComponents(ptr noundef %0, ptr noundef %1) local_unnamed_addr #0 {
  %3 = load ptr, ptr @l_Std_Time_Duration_ofNanoseconds___closed__1, align 8, !tbaa !4
  %4 = ptrtoint ptr %0 to i64
  %5 = and i64 %4, 1
  %.not.i11 = icmp eq i64 %5, 0
  br i1 %.not.i11, label %.critedge.i, label %6, !prof !8

6:                                                ; preds = %2
  %7 = ptrtoint ptr %3 to i64
  %8 = and i64 %7, 1
  %.not7.i = icmp eq i64 %8, 0
  br i1 %.not7.i, label %.critedge.i, label %9, !prof !8

9:                                                ; preds = %6
  %10 = shl i64 %4, 31
  %11 = ashr i64 %10, 32
  %12 = shl i64 %7, 31
  %13 = ashr i64 %12, 32
  %14 = mul nsw i64 %13, %11
  %15 = add nsw i64 %14, 2147483648
  %16 = icmp ult i64 %15, 4294967296
  br i1 %16, label %17, label %22, !prof !14

17:                                               ; preds = %9
  %18 = shl nsw i64 %14, 1
  %19 = and i64 %18, 8589934590
  %20 = or disjoint i64 %19, 1
  %21 = inttoptr i64 %20 to ptr
  br label %lean_int_mul.exit

22:                                               ; preds = %9
  %23 = tail call ptr @lean_big_int64_to_int(i64 noundef range(i64 -4611686016279904256, 4611686018427387905) %14) #3
  br label %lean_int_mul.exit

.critedge.i:                                      ; preds = %6, %2
  %24 = tail call ptr @lean_int_big_mul(ptr noundef %0, ptr noundef %3) #3
  br label %lean_int_mul.exit

lean_int_mul.exit:                                ; preds = %17, %22, %.critedge.i
  %.0.i = phi ptr [ %24, %.critedge.i ], [ %21, %17 ], [ %23, %22 ]
  %25 = ptrtoint ptr %.0.i to i64
  %26 = and i64 %25, 1
  %.not.i12 = icmp eq i64 %26, 0
  br i1 %.not.i12, label %46, label %27, !prof !8

27:                                               ; preds = %lean_int_mul.exit
  %28 = ptrtoint ptr %1 to i64
  %29 = and i64 %28, 1
  %.not7.i13 = icmp eq i64 %29, 0
  br i1 %.not7.i13, label %lean_int_add.exit.thread18, label %31, !prof !8

lean_int_add.exit.thread18:                       ; preds = %27
  %30 = tail call ptr @lean_int_big_add(ptr noundef %.0.i, ptr noundef %1) #3
  br label %lean_dec.exit8

31:                                               ; preds = %27
  %32 = shl i64 %25, 31
  %33 = ashr i64 %32, 32
  %34 = shl i64 %28, 31
  %35 = ashr i64 %34, 32
  %36 = add nsw i64 %33, %35
  %37 = add nsw i64 %36, 2147483648
  %38 = icmp ult i64 %37, 4294967296
  br i1 %38, label %39, label %44, !prof !14

39:                                               ; preds = %31
  %40 = shl nsw i64 %36, 1
  %41 = and i64 %40, 8589934590
  %42 = or disjoint i64 %41, 1
  %43 = inttoptr i64 %42 to ptr
  br label %lean_dec.exit8

44:                                               ; preds = %31
  %45 = tail call ptr @lean_big_int64_to_int(i64 noundef range(i64 -4611686016279904256, 4611686018427387905) %36) #3
  br label %lean_dec.exit8

46:                                               ; preds = %lean_int_mul.exit
  %47 = tail call ptr @lean_int_big_add(ptr noundef %.0.i, ptr noundef %1) #3
  %48 = load i32, ptr %.0.i, align 4, !tbaa !9
  %49 = icmp sgt i32 %48, 1
  br i1 %49, label %50, label %52, !prof !14

50:                                               ; preds = %46
  %51 = add nsw i32 %48, -1
  store i32 %51, ptr %.0.i, align 4, !tbaa !9
  br label %lean_dec.exit8

52:                                               ; preds = %46
  %.not.i = icmp eq i32 %48, 0
  br i1 %.not.i, label %lean_dec.exit8, label %53

53:                                               ; preds = %52
  tail call void @lean_dec_ref_cold(ptr noundef nonnull %.0.i) #3
  br label %lean_dec.exit8

lean_dec.exit8:                                   ; preds = %44, %39, %53, %52, %50, %lean_int_add.exit.thread18
  %.0.i1417 = phi ptr [ %30, %lean_int_add.exit.thread18 ], [ %47, %50 ], [ %47, %52 ], [ %47, %53 ], [ %45, %44 ], [ %43, %39 ]
  %54 = tail call ptr @l_Std_Time_Duration_ofNanoseconds(ptr noundef %.0.i1417)
  %55 = ptrtoint ptr %.0.i1417 to i64
  %56 = and i64 %55, 1
  %.not = icmp eq i64 %56, 0
  br i1 %.not, label %57, label %lean_dec.exit

57:                                               ; preds = %lean_dec.exit8
  %58 = load i32, ptr %.0.i1417, align 4, !tbaa !9
  %59 = icmp sgt i32 %58, 1
  br i1 %59, label %60, label %62, !prof !14

60:                                               ; preds = %57
  %61 = add nsw i32 %58, -1
  store i32 %61, ptr %.0.i1417, align 4, !tbaa !9
  br label %lean_dec.exit

62:                                               ; preds = %57
  %.not.i9 = icmp eq i32 %58, 0
  br i1 %.not.i9, label %lean_dec.exit, label %63

63:                                               ; preds = %62
  tail call void @lean_dec_ref_cold(ptr noundef nonnull %.0.i1417) #3
  br label %lean_dec.exit

lean_dec.exit:                                    ; preds = %63, %62, %60, %lean_dec.exit8
  ret ptr %54
}